; Function Attrs: mustprogress uwtable
define hidden void @_ZN5lackr11updt_paramsERK10params_ref(ptr noundef nonnull writeonly align 8 captures(none) dereferenceable(297) %0, ptr noundef nonnull align 8 dereferenceable(8) %1) local_unnamed_addr #3 align 2 personality ptr @__gxx_personality_v0 {
  %3 = alloca %struct.ackermannization_params, align 8
  call void @llvm.lifetime.start.p0(i64 16, ptr nonnull %3) #19
  store ptr %1, ptr %3, align 8, !tbaa !65
  %4 = getelementptr inbounds nuw i8, ptr %3, i64 8
  call void @_ZN7gparams10get_moduleEPKc(ptr dead_on_unwind nonnull writable sret(%class.params_ref) align 8 %4, ptr noundef nonnull @.str.2)
  %5 = load ptr, ptr %3, align 8, !tbaa !67
  %6 = invoke noundef zeroext i1 @_ZNK10params_ref8get_boolEPKcRKS_b(ptr noundef nonnull align 8 dereferenceable(8) %5, ptr noundef nonnull @.str.3, ptr noundef nonnull align 8 dereferenceable(8) %4, i1 noundef zeroext true)
          to label %_ZNK23ackermannization_params5eagerEv.exit unwind label %9

_ZNK23ackermannization_params5eagerEv.exit:       ; preds = %2
  %7 = getelementptr inbounds nuw i8, ptr %0, i64 200
  %8 = zext i1 %6 to i8
  store i8 %8, ptr %7, align 8, !tbaa !69
  call void @_ZN10params_refD1Ev(ptr noundef nonnull align 8 dereferenceable(8) %4) #19
  call void @llvm.lifetime.end.p0(i64 16, ptr nonnull %3) #19
  ret void

9:                                                ; preds = %2
  %10 = landingpad { ptr, i32 }
          cleanup
  call void @_ZN10params_refD1Ev(ptr noundef nonnull align 8 dereferenceable(8) %4) #19
  call void @llvm.lifetime.end.p0(i64 16, ptr nonnull %3) #19
  resume { ptr, i32 } %10
}